target datalayout = "e-m:e-p270:32:32-p271:32:32-p272:64:64-i64:64-i128:128-f80:128-n8:16:32:64-S128"
target triple = "x86_64-pc-linux-gnu"

%"class.lean::object_ref" = type { ptr }
%"class.lean::string_ref" = type { %"class.lean::object_ref" }

@_ZTIN4lean9exceptionE = linkonce_odr constant { ptr, ptr, ptr } { ptr getelementptr inbounds (ptr, ptr @_ZTVN10__cxxabiv120__si_class_type_infoE, i64 2), ptr @_ZTSN4lean9exceptionE, ptr @_ZTIN4lean9throwableE }, comdat, align 8

; Function Attrs: inlinehint mustprogress nounwind uwtable
define internal noundef ptr @_ZL8lean_boxm(i64 noundef %0) #3 {
  %2 = alloca i64, align 8
  store i64 %0, ptr %2, align 8, !tbaa !34
  %3 = load i64, ptr %2, align 8, !tbaa !34
  %4 = shl i64 %3, 1
  %5 = or i64 %4, 1
  %6 = inttoptr i64 %5 to ptr
  ret ptr %6
}

; Function Attrs: mustprogress nounwind uwtable
define linkonce_odr hidden void @_ZN4lean10object_refC2EP11lean_object(ptr noundef nonnull align 8 dereferenceable(8) %0, ptr noundef %1) unnamed_addr #2 comdat align 2 {
  %3 = alloca ptr, align 8
  %4 = alloca ptr, align 8
  store ptr %0, ptr %3, align 8, !tbaa !13
  store ptr %1, ptr %4, align 8, !tbaa !3
  %5 = load ptr, ptr %3, align 8
  %6 = getelementptr inbounds nuw %"class.lean::object_ref", ptr %5, i32 0, i32 0
  %7 = load ptr, ptr %4, align 8, !tbaa !3
  store ptr %7, ptr %6, align 8, !tbaa !17
  ret void
}

; Function Attrs: inlinehint mustprogress uwtable
define linkonce_odr hidden noundef ptr @_ZN4lean9mk_stringEPKc(ptr noundef %0) #1 comdat {
  %2 = alloca ptr, align 8
  store ptr %0, ptr %2, align 8, !tbaa !9
  %3 = load ptr, ptr %2, align 8, !tbaa !9
  %4 = call ptr @lean_mk_string(ptr noundef %3)
  ret ptr %4
}

; Function Attrs: inlinehint mustprogress uwtable
define linkonce_odr hidden noundef ptr @_ZN4lean3boxEm(i64 noundef %0) #1 comdat {
  %2 = alloca i64, align 8
  store i64 %0, ptr %2, align 8, !tbaa !34
  %3 = load i64, ptr %2, align 8, !tbaa !34
  %4 = call noundef ptr @_ZL8lean_boxm(i64 noundef %3)
  ret ptr %4
}

; Function Attrs: mustprogress uwtable
define linkonce_odr hidden void @_ZN4lean10string_refC2EPKc(ptr noundef nonnull align 8 dereferenceable(8) %0, ptr noundef %1) unnamed_addr #0 comdat align 2 {
  %3 = alloca ptr, align 8
  %4 = alloca ptr, align 8
  store ptr %0, ptr %3, align 8, !tbaa !25
  store ptr %1, ptr %4, align 8, !tbaa !9
  %5 = load ptr, ptr %3, align 8
  %6 = load ptr, ptr %4, align 8, !tbaa !9
  %7 = call noundef ptr @_ZN4lean9mk_stringEPKc(ptr noundef %6)
  call void @_ZN4lean10object_refC2EP11lean_object(ptr noundef nonnull align 8 dereferenceable(8) %5, ptr noundef %7)
  ret void
}

; Function Attrs: mustprogress uwtable
define linkonce_odr hidden noundef ptr @_ZN4lean10object_ref5stealEv(ptr noundef nonnull align 8 dereferenceable(8) %0) #0 comdat align 2 {
  %2 = alloca ptr, align 8
  %3 = alloca ptr, align 8
  store ptr %0, ptr %2, align 8, !tbaa !13
  %4 = load ptr, ptr %2, align 8
  call void @llvm.lifetime.start.p0(i64 8, ptr %3) #18
  %5 = getelementptr inbounds nuw %"class.lean::object_ref", ptr %4, i32 0, i32 0
  %6 = load ptr, ptr %5, align 8, !tbaa !17
  store ptr %6, ptr %3, align 8, !tbaa !3
  %7 = call noundef ptr @_ZN4lean3boxEm(i64 noundef 0)
  %8 = getelementptr inbounds nuw %"class.lean::object_ref", ptr %4, i32 0, i32 0
  store ptr %7, ptr %8, align 8, !tbaa !17
  %9 = load ptr, ptr %3, align 8, !tbaa !3
  call void @llvm.lifetime.end.p0(i64 8, ptr %3) #18
  ret ptr %9
}

; Function Attrs: inlinehint mustprogress uwtable
define linkonce_odr hidden void @_ZN4lean8mk_cnstrEjP11lean_objectj(ptr dead_on_unwind noalias writable sret(%"class.lean::object_ref") align 8 %0, i32 noundef %1, ptr noundef %2, i32 noundef %3) #1 comdat {
  %5 = alloca ptr, align 8
  %6 = alloca i32, align 4
  %7 = alloca ptr, align 8
  %8 = alloca i32, align 4
  store ptr %0, ptr %5, align 8
  store i32 %1, ptr %6, align 4, !tbaa !15
  store ptr %2, ptr %7, align 8, !tbaa !3
  store i32 %3, ptr %8, align 4, !tbaa !15
  %9 = load i32, ptr %6, align 4, !tbaa !15
  %10 = load i32, ptr %8, align 4, !tbaa !15
  call void @_ZN4lean8mk_cnstrEjjPP11lean_objectj(ptr dead_on_unwind writable sret(%"class.lean::object_ref") align 8 %0, i32 noundef %9, i32 noundef 1, ptr noundef %7, i32 noundef %10)
  ret void
}

; Function Attrs: mustprogress uwtable
define ptr @lean_eval_const(ptr noundef %0, ptr noundef %1, ptr noundef %2) #0 personality ptr @__gxx_personality_v0 {
  %4 = alloca ptr, align 8
  %5 = alloca ptr, align 8
  %6 = alloca ptr, align 8
  %7 = alloca ptr, align 8
  %8 = alloca %"class.lean::object_ref", align 8
  %9 = alloca ptr, align 8
  %10 = alloca i32, align 4
  %11 = alloca ptr, align 8
  %12 = alloca %"class.lean::object_ref", align 8
  %13 = alloca %"class.lean::string_ref", align 8
  store ptr %0, ptr %5, align 8, !tbaa !3
  store ptr %1, ptr %6, align 8, !tbaa !3
  store ptr %2, ptr %7, align 8, !tbaa !3
  call void @llvm.lifetime.start.p0(i64 8, ptr %8) #18
  %14 = invoke noundef ptr @_ZN4lean2ir9run_boxedERKNS_16elab_environmentERKNS_7optionsERKNS_4nameEjPP11lean_object(ptr noundef nonnull align 8 dereferenceable(8) %5, ptr noundef nonnull align 8 dereferenceable(8) %6, ptr noundef nonnull align 8 dereferenceable(8) %7, i32 noundef 0, ptr noundef null)
          to label %15 unwind label %19

15:                                               ; preds = %3
  invoke void @_ZN4lean8mk_cnstrEjP11lean_objectj(ptr dead_on_unwind writable sret(%"class.lean::object_ref") align 8 %8, i32 noundef 1, ptr noundef %14, i32 noundef 0)
          to label %16 unwind label %19

16:                                               ; preds = %15
  %17 = invoke noundef ptr @_ZN4lean10object_ref5stealEv(ptr noundef nonnull align 8 dereferenceable(8) %8)
          to label %18 unwind label %23

18:                                               ; preds = %16
  store ptr %17, ptr %4, align 8
  call void @_ZN4lean10object_refD2Ev(ptr noundef nonnull align 8 dereferenceable(8) %8) #18
  call void @llvm.lifetime.end.p0(i64 8, ptr %8) #18
  br label %60

19:                                               ; preds = %15, %3
  %20 = landingpad { ptr, i32 }
          cleanup
          catch ptr @_ZTIN4lean9exceptionE
  %21 = extractvalue { ptr, i32 } %20, 0
  store ptr %21, ptr %9, align 8
  %22 = extractvalue { ptr, i32 } %20, 1
  store i32 %22, ptr %10, align 4
  br label %27

23:                                               ; preds = %16
  %24 = landingpad { ptr, i32 }
          cleanup
          catch ptr @_ZTIN4lean9exceptionE
  %25 = extractvalue { ptr, i32 } %24, 0
  store ptr %25, ptr %9, align 8
  %26 = extractvalue { ptr, i32 } %24, 1
  store i32 %26, ptr %10, align 4
  call void @_ZN4lean10object_refD2Ev(ptr noundef nonnull align 8 dereferenceable(8) %8) #18
  br label %27

27:                                               ; preds = %23, %19
  call void @llvm.lifetime.end.p0(i64 8, ptr %8) #18
  br label %28

28:                                               ; preds = %27
  %29 = load i32, ptr %10, align 4
  %30 = call i32 @llvm.eh.typeid.for.p0(ptr @_ZTIN4lean9exceptionE) #18
  %31 = icmp eq i32 %29, %30
  br i1 %31, label %32, label %62

32:                                               ; preds = %28
  call void @llvm.lifetime.start.p0(i64 8, ptr %11) #18
  %33 = load ptr, ptr %9, align 8
  %34 = call ptr @__cxa_begin_catch(ptr %33) #18
  store ptr %34, ptr %11, align 8
  call void @llvm.lifetime.start.p0(i64 8, ptr %12) #18
  call void @llvm.lifetime.start.p0(i64 8, ptr %13) #18
  %35 = load ptr, ptr %11, align 8, !tbaa !7
  %36 = load ptr, ptr %35, align 8, !tbaa !11
  %37 = getelementptr inbounds ptr, ptr %36, i64 2
  %38 = load ptr, ptr %37, align 8
  %39 = call noundef ptr %38(ptr noundef nonnull align 8 dereferenceable(40) %35) #18
  invoke void @_ZN4lean10string_refC2EPKc(ptr noundef nonnull align 8 dereferenceable(8) %13, ptr noundef %39)
          to label %40 unwind label %44

40:                                               ; preds = %32
  invoke void @_ZN4lean8mk_cnstrEjRKNS_10object_refEj(ptr dead_on_unwind writable sret(%"class.lean::object_ref") align 8 %12, i32 noundef 0, ptr noundef nonnull align 8 dereferenceable(8) %13, i32 noundef 0)
          to label %41 unwind label %48

41:                                               ; preds = %40
  %42 = invoke noundef ptr @_ZN4lean10object_ref5stealEv(ptr noundef nonnull align 8 dereferenceable(8) %12)
          to label %43 unwind label %52

43:                                               ; preds = %41
  store ptr %42, ptr %4, align 8
  call void @_ZN4lean10object_refD2Ev(ptr noundef nonnull align 8 dereferenceable(8) %12) #18
  call void @_ZN4lean10object_refD2Ev(ptr noundef nonnull align 8 dereferenceable(8) %13) #18
  call void @llvm.lifetime.end.p0(i64 8, ptr %13) #18
  call void @llvm.lifetime.end.p0(i64 8, ptr %12) #18
  call void @__cxa_end_catch()
  call void @llvm.lifetime.end.p0(i64 8, ptr %11) #18
  br label %60

44:                                               ; preds = %32
  %45 = landingpad { ptr, i32 }
          cleanup
  %46 = extractvalue { ptr, i32 } %45, 0
  store ptr %46, ptr %9, align 8
  %47 = extractvalue { ptr, i32 } %45, 1
  store i32 %47, ptr %10, align 4
  br label %57

48:                                               ; preds = %40
  %49 = landingpad { ptr, i32 }
          cleanup
  %50 = extractvalue { ptr, i32 } %49, 0
  store ptr %50, ptr %9, align 8
  %51 = extractvalue { ptr, i32 } %49, 1
  store i32 %51, ptr %10, align 4
  br label %56

52:                                               ; preds = %41
  %53 = landingpad { ptr, i32 }
          cleanup
  %54 = extractvalue { ptr, i32 } %53, 0
  store ptr %54, ptr %9, align 8
  %55 = extractvalue { ptr, i32 } %53, 1
  store i32 %55, ptr %10, align 4
  call void @_ZN4lean10object_refD2Ev(ptr noundef nonnull align 8 dereferenceable(8) %12) #18
  br label %56

56:                                               ; preds = %52, %48
  call void @_ZN4lean10object_refD2Ev(ptr noundef nonnull align 8 dereferenceable(8) %13) #18
  br label %57

57:                                               ; preds = %56, %44
  call void @llvm.lifetime.end.p0(i64 8, ptr %13) #18
  call void @llvm.lifetime.end.p0(i64 8, ptr %12) #18
  invoke void @__cxa_end_catch()
          to label %58 unwind label %67

58:                                               ; preds = %57
  call void @llvm.lifetime.end.p0(i64 8, ptr %11) #18
  br label %62

59:                                               ; No predecessors!
  unreachable

60:                                               ; preds = %43, %18
  %61 = load ptr, ptr %4, align 8
  ret ptr %61

62:                                               ; preds = %58, %28
  %63 = load ptr, ptr %9, align 8
  %64 = load i32, ptr %10, align 4
  %65 = insertvalue { ptr, i32 } poison, ptr %63, 0
  %66 = insertvalue { ptr, i32 } %65, i32 %64, 1
  resume { ptr, i32 } %66

67:                                               ; preds = %57
  %68 = landingpad { ptr, i32 }
          catch ptr null
  %69 = extractvalue { ptr, i32 } %68, 0
  call void @__clang_call_terminate(ptr %69) #20
  unreachable
}