; Function Attrs: mustprogress uwtable
define ptr @lean_eval_const(ptr noundef %0, ptr noundef %1, ptr noundef %2) local_unnamed_addr #0 personality ptr @__gxx_personality_v0 {
  %4 = alloca ptr, align 8
  %5 = alloca ptr, align 8
  %6 = alloca ptr, align 8
  %7 = alloca ptr, align 8
  %8 = alloca %"class.lean::object_ref", align 8
  %9 = alloca %"class.lean::object_ref", align 8
  %10 = alloca %"class.lean::string_ref", align 8
  store ptr %0, ptr %5, align 8, !tbaa !10
  store ptr %1, ptr %6, align 8, !tbaa !10
  store ptr %2, ptr %7, align 8, !tbaa !10
  call void @llvm.lifetime.start.p0(i64 8, ptr nonnull %8) #24
  %11 = invoke noundef ptr @_ZN4lean2ir9run_boxedERKNS_16elab_environmentERKNS_7optionsERKNS_4nameEjPP11lean_object(ptr noundef nonnull align 8 dereferenceable(8) %5, ptr noundef nonnull align 8 dereferenceable(8) %6, ptr noundef nonnull align 8 dereferenceable(8) %7, i32 noundef 0, ptr noundef null)
          to label %12 unwind label %14

12:                                               ; preds = %3
  call void @llvm.lifetime.start.p0(i64 8, ptr nonnull %4)
  store ptr %11, ptr %4, align 8, !tbaa !10, !noalias !93
  invoke void @_ZN4lean8mk_cnstrEjjPP11lean_objectj(ptr dead_on_unwind nonnull writable sret(%"class.lean::object_ref") align 8 %8, i32 noundef 1, i32 noundef 1, ptr noundef nonnull %4, i32 noundef 0)
          to label %_ZN4lean10object_refD2Ev.exit unwind label %14

_ZN4lean10object_refD2Ev.exit:                    ; preds = %12
  call void @llvm.lifetime.end.p0(i64 8, ptr nonnull %4)
  %13 = load ptr, ptr %8, align 8, !tbaa !6
  call void @llvm.lifetime.end.p0(i64 8, ptr nonnull %8) #24
  br label %33

14:                                               ; preds = %12, %3
  %15 = landingpad { ptr, i32 }
          cleanup
          catch ptr @_ZTIN4lean9exceptionE
  %.05 = extractvalue { ptr, i32 } %15, 1
  call void @llvm.lifetime.end.p0(i64 8, ptr nonnull %8) #24
  %16 = call i32 @llvm.eh.typeid.for.p0(ptr nonnull @_ZTIN4lean9exceptionE) #24
  %17 = icmp eq i32 %.05, %16
  br i1 %17, label %18, label %34

18:                                               ; preds = %14
  %.06 = extractvalue { ptr, i32 } %15, 0
  %19 = call ptr @__cxa_begin_catch(ptr %.06) #24
  call void @llvm.lifetime.start.p0(i64 8, ptr nonnull %9) #24
  call void @llvm.lifetime.start.p0(i64 8, ptr nonnull %10) #24
  %20 = load ptr, ptr %19, align 8, !tbaa !3
  %21 = getelementptr inbounds nuw i8, ptr %20, i64 16
  %22 = load ptr, ptr %21, align 8
  %23 = call noundef ptr %22(ptr noundef nonnull align 8 dereferenceable(40) %19) #24
  %24 = invoke noundef ptr @lean_mk_string(ptr noundef %23)
          to label %25 unwind label %28

25:                                               ; preds = %18
  store ptr %24, ptr %10, align 8, !tbaa !6
  invoke void @_ZN4lean8mk_cnstrEjRKNS_10object_refEj(ptr dead_on_unwind nonnull writable sret(%"class.lean::object_ref") align 8 %9, i32 noundef 0, ptr noundef nonnull align 8 dereferenceable(8) %10, i32 noundef 0)
          to label %26 unwind label %30

26:                                               ; preds = %25
  %27 = load ptr, ptr %9, align 8, !tbaa !6
  store ptr inttoptr (i64 1 to ptr), ptr %9, align 8, !tbaa !6
  call void @_ZN4lean10object_refD2Ev(ptr noundef nonnull align 8 dereferenceable(8) %9) #24
  call void @_ZN4lean10object_refD2Ev(ptr noundef nonnull align 8 dereferenceable(8) %10) #24
  call void @llvm.lifetime.end.p0(i64 8, ptr nonnull %10) #24
  call void @llvm.lifetime.end.p0(i64 8, ptr nonnull %9) #24
  call void @__cxa_end_catch()
  br label %33

28:                                               ; preds = %18
  %29 = landingpad { ptr, i32 }
          cleanup
  br label %32

30:                                               ; preds = %25
  %31 = landingpad { ptr, i32 }
          cleanup
  call void @_ZN4lean10object_refD2Ev(ptr noundef nonnull align 8 dereferenceable(8) %10) #24
  br label %32

32:                                               ; preds = %30, %28
  %.pn11.pn = phi { ptr, i32 } [ %31, %30 ], [ %29, %28 ]
  call void @llvm.lifetime.end.p0(i64 8, ptr nonnull %10) #24
  call void @llvm.lifetime.end.p0(i64 8, ptr nonnull %9) #24
  invoke void @__cxa_end_catch()
          to label %34 unwind label %35

33:                                               ; preds = %26, %_ZN4lean10object_refD2Ev.exit
  %.0 = phi ptr [ %13, %_ZN4lean10object_refD2Ev.exit ], [ %27, %26 ]
  ret ptr %.0

34:                                               ; preds = %32, %14
  %.merged = phi { ptr, i32 } [ %15, %14 ], [ %.pn11.pn, %32 ]
  resume { ptr, i32 } %.merged

35:                                               ; preds = %32
  %36 = landingpad { ptr, i32 }
          catch ptr null
  %37 = extractvalue { ptr, i32 } %36, 0
  call void @__clang_call_terminate(ptr %37) #26
  unreachable
}